target datalayout = "e-m:e-p270:32:32-p271:32:32-p272:64:64-i64:64-i128:128-f80:128-n8:16:32:64-S128"
target triple = "x86_64-unknown-linux-gnu"

%"class.datalog::entry_storage" = type { i32, i32, i64, %class.svector, %class.hashtable, i64 }
%class.svector = type { %class.vector }
%class.vector = type { ptr }
%class.hashtable = type { %class.core_hashtable.base, [4 x i8] }
%class.core_hashtable.base = type <{ %"class.datalog::entry_storage::offset_hash_proc.base", [4 x i8], %"class.datalog::entry_storage::offset_eq_proc.base", [4 x i8], ptr, i32, i32, i32 }>
%"class.datalog::entry_storage::offset_hash_proc.base" = type <{ ptr, i32 }>
%"class.datalog::entry_storage::offset_eq_proc.base" = type <{ ptr, i32 }>
%class.default_hash_entry.24 = type { i32, i32, i64 }

; Function Attrs: mustprogress nounwind uwtable
define linkonce_odr hidden noundef nonnull align 8 dereferenceable(8) ptr @_ZN18default_hash_entryImE8get_dataEv(ptr noundef nonnull align 8 dereferenceable(16) %this) #5 comdat align 2 {
entry:
  %this.addr = alloca ptr, align 8
  store ptr %this, ptr %this.addr, align 8
  %this1 = load ptr, ptr %this.addr, align 8
  %m_data = getelementptr inbounds %class.default_hash_entry.24, ptr %this1, i32 0, i32 2
  ret ptr %m_data
}

; Function Attrs: mustprogress uwtable
define linkonce_odr hidden noundef zeroext i1 @_ZN14core_hashtableI18default_hash_entryImEN7datalog13entry_storage16offset_hash_procENS3_14offset_eq_procEE24insert_if_not_there_coreERKmRPS1_(ptr noundef nonnull align 8 dereferenceable(52) %this, ptr noundef nonnull align 8 dereferenceable(8) %e, ptr noundef nonnull align 8 dereferenceable(8) %et) #4 comdat align 2 {
entry:
  %this.addr = alloca ptr, align 8
  %e.addr = alloca ptr, align 8
  %et.addr = alloca ptr, align 8
  %temp = alloca i64, align 8
  store ptr %this, ptr %this.addr, align 8
  store ptr %e, ptr %e.addr, align 8
  store ptr %et, ptr %et.addr, align 8
  %this1 = load ptr, ptr %this.addr, align 8
  %0 = load ptr, ptr %e.addr, align 8
  %1 = load i64, ptr %0, align 8
  store i64 %1, ptr %temp, align 8
  %2 = load ptr, ptr %et.addr, align 8
  %call = call noundef zeroext i1 @_ZN14core_hashtableI18default_hash_entryImEN7datalog13entry_storage16offset_hash_procENS3_14offset_eq_procEE24insert_if_not_there_coreEOmRPS1_(ptr noundef nonnull align 8 dereferenceable(52) %this1, ptr noundef nonnull align 8 dereferenceable(8) %temp, ptr noundef nonnull align 8 dereferenceable(8) %2)
  ret i1 %call
}

; Function Attrs: mustprogress uwtable
define linkonce_odr hidden noundef nonnull align 8 dereferenceable(8) ptr @_ZN14core_hashtableI18default_hash_entryImEN7datalog13entry_storage16offset_hash_procENS3_14offset_eq_procEE19insert_if_not_thereERKm(ptr noundef nonnull align 8 dereferenceable(52) %this, ptr noundef nonnull align 8 dereferenceable(8) %e) #4 comdat align 2 {
entry:
  %this.addr = alloca ptr, align 8
  %e.addr = alloca ptr, align 8
  %et = alloca ptr, align 8
  store ptr %this, ptr %this.addr, align 8
  store ptr %e, ptr %e.addr, align 8
  %this1 = load ptr, ptr %this.addr, align 8
  %0 = load ptr, ptr %e.addr, align 8
  %call = call noundef zeroext i1 @_ZN14core_hashtableI18default_hash_entryImEN7datalog13entry_storage16offset_hash_procENS3_14offset_eq_procEE24insert_if_not_there_coreERKmRPS1_(ptr noundef nonnull align 8 dereferenceable(52) %this1, ptr noundef nonnull align 8 dereferenceable(8) %0, ptr noundef nonnull align 8 dereferenceable(8) %et)
  %1 = load ptr, ptr %et, align 8
  %call2 = call noundef nonnull align 8 dereferenceable(8) ptr @_ZN18default_hash_entryImE8get_dataEv(ptr noundef nonnull align 8 dereferenceable(16) %1)
  ret ptr %call2
}

; Function Attrs: mustprogress uwtable
define hidden noundef zeroext i1 @_ZN7datalog13entry_storage22insert_reserve_contentEv(ptr noundef nonnull align 8 dereferenceable(88) %this) #4 align 2 {
entry:
  %retval = alloca i1, align 1
  %this.addr = alloca ptr, align 8
  %entry_ofs = alloca i64, align 8
  store ptr %this, ptr %this.addr, align 8
  %this1 = load ptr, ptr %this.addr, align 8
  %m_data_indexer = getelementptr inbounds %"class.datalog::entry_storage", ptr %this1, i32 0, i32 4
  %m_reserve = getelementptr inbounds %"class.datalog::entry_storage", ptr %this1, i32 0, i32 5
  %call = call noundef nonnull align 8 dereferenceable(8) ptr @_ZN14core_hashtableI18default_hash_entryImEN7datalog13entry_storage16offset_hash_procENS3_14offset_eq_procEE19insert_if_not_thereERKm(ptr noundef nonnull align 8 dereferenceable(52) %m_data_indexer, ptr noundef nonnull align 8 dereferenceable(8) %m_reserve)
  %0 = load i64, ptr %call, align 8
  store i64 %0, ptr %entry_ofs, align 8
  %m_reserve2 = getelementptr inbounds %"class.datalog::entry_storage", ptr %this1, i32 0, i32 5
  %1 = load i64, ptr %m_reserve2, align 8
  %2 = load i64, ptr %entry_ofs, align 8
  %cmp = icmp eq i64 %1, %2
  br i1 %cmp, label %if.then, label %if.end

if.then:                                          ; preds = %entry
  %m_reserve3 = getelementptr inbounds %"class.datalog::entry_storage", ptr %this1, i32 0, i32 5
  store i64 4294967295, ptr %m_reserve3, align 8
  store i1 true, ptr %retval, align 1
  br label %return

if.end:                                           ; preds = %entry
  store i1 false, ptr %retval, align 1
  br label %return

return:                                           ; preds = %if.end, %if.then
  %3 = load i1, ptr %retval, align 1
  ret i1 %3
}