; Function Attrs: mustprogress uwtable
define hidden noundef zeroext i1 @_ZN7datalog13entry_storage22insert_reserve_contentEv(ptr noundef nonnull align 8 dereferenceable(88) %this) local_unnamed_addr #3 align 2 {
entry:
  %temp.i.i = alloca i64, align 8
  %et.i = alloca ptr, align 8
  %m_data_indexer = getelementptr inbounds i8, ptr %this, i64 24
  %m_reserve = getelementptr inbounds i8, ptr %this, i64 80
  call void @llvm.lifetime.start.p0(i64 8, ptr nonnull %et.i)
  call void @llvm.lifetime.start.p0(i64 8, ptr nonnull %temp.i.i)
  %0 = load i64, ptr %m_reserve, align 8
  store i64 %0, ptr %temp.i.i, align 8
  %call.i.i = call noundef zeroext i1 @_ZN14core_hashtableI18default_hash_entryImEN7datalog13entry_storage16offset_hash_procENS3_14offset_eq_procEE24insert_if_not_there_coreEOmRPS1_(ptr noundef nonnull align 8 dereferenceable(52) %m_data_indexer, ptr noundef nonnull align 8 dereferenceable(8) %temp.i.i, ptr noundef nonnull align 8 dereferenceable(8) %et.i)
  call void @llvm.lifetime.end.p0(i64 8, ptr nonnull %temp.i.i)
  %1 = load ptr, ptr %et.i, align 8
  %m_data.i.i = getelementptr inbounds i8, ptr %1, i64 8
  call void @llvm.lifetime.end.p0(i64 8, ptr nonnull %et.i)
  %2 = load i64, ptr %m_data.i.i, align 8
  %3 = load i64, ptr %m_reserve, align 8
  %cmp = icmp eq i64 %3, %2
  br i1 %cmp, label %if.then, label %return

if.then:                                          ; preds = %entry
  store i64 4294967295, ptr %m_reserve, align 8
  br label %return

return:                                           ; preds = %entry, %if.then
  ret i1 %cmp
}